; Function Attrs: mustprogress nofree norecurse nosync nounwind willreturn memory(read, argmem: readwrite, inaccessiblemem: none) uwtable
define internal noundef i32 @t1_cmap_custom_init(ptr noundef captures(none) initializes((24, 40)) %0, ptr readnone captures(none) %1) #6 {
  %3 = load ptr, ptr %0, align 8
  %4 = getelementptr inbounds nuw i8, ptr %3, i64 556
  %5 = load i32, ptr %4, align 4
  %6 = getelementptr inbounds nuw i8, ptr %0, i64 24
  store i32 %5, ptr %6, align 8
  %7 = getelementptr inbounds nuw i8, ptr %3, i64 560
  %8 = load i32, ptr %7, align 8
  %9 = sub i32 %8, %5
  %10 = getelementptr inbounds nuw i8, ptr %0, i64 28
  store i32 %9, ptr %10, align 4
  %11 = getelementptr inbounds nuw i8, ptr %3, i64 568
  %12 = load ptr, ptr %11, align 8
  %13 = getelementptr inbounds nuw i8, ptr %0, i64 32
  store ptr %12, ptr %13, align 8
  ret i32 0
}